target datalayout = "e-m:e-p270:32:32-p271:32:32-p272:64:64-i64:64-i128:128-f80:128-n8:16:32:64-S128"
target triple = "x86_64-unknown-linux-gnu"

%"struct.llvh::fltSemantics" = type { i16, i16, i32, i32 }
%"class.llvh::detail::IEEEFloat" = type <{ ptr, %"union.llvh::detail::IEEEFloat::Significand", i16, i8, [5 x i8] }>
%"union.llvh::detail::IEEEFloat::Significand" = type { i64 }
%"class.llvh::APInt" = type <{ %union.anon, i32, [4 x i8] }>
%union.anon = type { i64 }

@_ZN4llvhL20semX87DoubleExtendedE = internal constant %"struct.llvh::fltSemantics" { i16 16383, i16 -16382, i32 64, i32 80 }, align 4

; Function Attrs: mustprogress nounwind uwtable
define internal noundef i32 @_ZN4llvhL16partCountForBitsEj(i32 noundef %bits) #1 {
entry:
  %bits.addr = alloca i32, align 4
  store i32 %bits, ptr %bits.addr, align 4
  %0 = load i32, ptr %bits.addr, align 4
  %add = add i32 %0, 64
  %sub = sub i32 %add, 1
  %div = udiv i32 %sub, 64
  ret i32 %div
}

; Function Attrs: mustprogress nounwind uwtable
define hidden noundef i32 @_ZNK4llvh6detail9IEEEFloat9partCountEv(ptr noundef nonnull align 8 dereferenceable(24) %this) #1 align 2 {
entry:
  %this.addr = alloca ptr, align 8
  store ptr %this, ptr %this.addr, align 8
  %this1 = load ptr, ptr %this.addr, align 8
  %semantics = getelementptr inbounds %"class.llvh::detail::IEEEFloat", ptr %this1, i32 0, i32 0
  %0 = load ptr, ptr %semantics, align 8
  %precision = getelementptr inbounds %"struct.llvh::fltSemantics", ptr %0, i32 0, i32 2
  %1 = load i32, ptr %precision, align 4
  %add = add i32 %1, 1
  %call = call noundef i32 @_ZN4llvhL16partCountForBitsEj(i32 noundef %add)
  ret i32 %call
}

; Function Attrs: mustprogress nounwind uwtable
define linkonce_odr hidden noundef zeroext i1 @_ZNK4llvh5APInt12isSingleWordEv(ptr noundef nonnull align 8 dereferenceable(12) %this) #1 comdat align 2 {
entry:
  %this.addr = alloca ptr, align 8
  store ptr %this, ptr %this.addr, align 8
  %this1 = load ptr, ptr %this.addr, align 8
  %BitWidth = getelementptr inbounds %"class.llvh::APInt", ptr %this1, i32 0, i32 1
  %0 = load i32, ptr %BitWidth, align 8
  %cmp = icmp ule i32 %0, 64
  ret i1 %cmp
}

; Function Attrs: mustprogress nounwind uwtable
define hidden noundef ptr @_ZN4llvh6detail9IEEEFloat16significandPartsEv(ptr noundef nonnull align 8 dereferenceable(24) %this) #1 align 2 {
entry:
  %retval = alloca ptr, align 8
  %this.addr = alloca ptr, align 8
  store ptr %this, ptr %this.addr, align 8
  %this1 = load ptr, ptr %this.addr, align 8
  %call = call noundef i32 @_ZNK4llvh6detail9IEEEFloat9partCountEv(ptr noundef nonnull align 8 dereferenceable(24) %this1)
  %cmp = icmp ugt i32 %call, 1
  br i1 %cmp, label %if.then, label %if.else

if.then:                                          ; preds = %entry
  %significand = getelementptr inbounds %"class.llvh::detail::IEEEFloat", ptr %this1, i32 0, i32 1
  %0 = load ptr, ptr %significand, align 8
  store ptr %0, ptr %retval, align 8
  br label %return

if.else:                                          ; preds = %entry
  %significand2 = getelementptr inbounds %"class.llvh::detail::IEEEFloat", ptr %this1, i32 0, i32 1
  store ptr %significand2, ptr %retval, align 8
  br label %return

return:                                           ; preds = %if.else, %if.then
  %1 = load ptr, ptr %retval, align 8
  ret ptr %1
}

; Function Attrs: mustprogress nounwind uwtable
define hidden void @_ZN4llvh6detail9IEEEFloat10initializeEPKNS_12fltSemanticsE(ptr noundef nonnull align 8 dereferenceable(24) %this, ptr noundef %ourSemantics) #1 align 2 {
entry:
  %this.addr = alloca ptr, align 8
  %ourSemantics.addr = alloca ptr, align 8
  %count = alloca i32, align 4
  store ptr %this, ptr %this.addr, align 8
  store ptr %ourSemantics, ptr %ourSemantics.addr, align 8
  %this1 = load ptr, ptr %this.addr, align 8
  %0 = load ptr, ptr %ourSemantics.addr, align 8
  %semantics = getelementptr inbounds %"class.llvh::detail::IEEEFloat", ptr %this1, i32 0, i32 0
  store ptr %0, ptr %semantics, align 8
  %call = call noundef i32 @_ZNK4llvh6detail9IEEEFloat9partCountEv(ptr noundef nonnull align 8 dereferenceable(24) %this1)
  store i32 %call, ptr %count, align 4
  %1 = load i32, ptr %count, align 4
  %cmp = icmp ugt i32 %1, 1
  br i1 %cmp, label %if.then, label %if.end

if.then:                                          ; preds = %entry
  %2 = load i32, ptr %count, align 4
  %conv = zext i32 %2 to i64
  %3 = call { i64, i1 } @llvm.umul.with.overflow.i64(i64 %conv, i64 8)
  %4 = extractvalue { i64, i1 } %3, 1
  %5 = extractvalue { i64, i1 } %3, 0
  %6 = select i1 %4, i64 -1, i64 %5
  %call2 = call noalias noundef nonnull ptr @_Znam(i64 noundef %6) #13
  %significand = getelementptr inbounds %"class.llvh::detail::IEEEFloat", ptr %this1, i32 0, i32 1
  store ptr %call2, ptr %significand, align 8
  br label %if.end

if.end:                                           ; preds = %if.then, %entry
  ret void
}

; Function Attrs: mustprogress nounwind uwtable
define linkonce_odr hidden noundef ptr @_ZNK4llvh5APInt10getRawDataEv(ptr noundef nonnull align 8 dereferenceable(12) %this) #1 comdat align 2 {
entry:
  %retval = alloca ptr, align 8
  %this.addr = alloca ptr, align 8
  store ptr %this, ptr %this.addr, align 8
  %this1 = load ptr, ptr %this.addr, align 8
  %call = call noundef zeroext i1 @_ZNK4llvh5APInt12isSingleWordEv(ptr noundef nonnull align 8 dereferenceable(12) %this1)
  br i1 %call, label %if.then, label %if.end

if.then:                                          ; preds = %entry
  %U = getelementptr inbounds %"class.llvh::APInt", ptr %this1, i32 0, i32 0
  store ptr %U, ptr %retval, align 8
  br label %return

if.end:                                           ; preds = %entry
  %U2 = getelementptr inbounds %"class.llvh::APInt", ptr %this1, i32 0, i32 0
  %0 = load ptr, ptr %U2, align 8
  %arrayidx = getelementptr inbounds i64, ptr %0, i64 0
  store ptr %arrayidx, ptr %retval, align 8
  br label %return

return:                                           ; preds = %if.end, %if.then
  %1 = load ptr, ptr %retval, align 8
  ret ptr %1
}

; Function Attrs: mustprogress nounwind uwtable
define hidden void @_ZN4llvh6detail9IEEEFloat26initFromF80LongDoubleAPIntERKNS_5APIntE(ptr noundef nonnull align 8 dereferenceable(24) %this, ptr noundef nonnull align 8 dereferenceable(12) %api) #1 align 2 {
entry:
  %this.addr = alloca ptr, align 8
  %api.addr = alloca ptr, align 8
  %i1 = alloca i64, align 8
  %i2 = alloca i64, align 8
  %myexponent = alloca i64, align 8
  %mysignificand = alloca i64, align 8
  %myintegerbit = alloca i8, align 1
  store ptr %this, ptr %this.addr, align 8
  store ptr %api, ptr %api.addr, align 8
  %this1 = load ptr, ptr %this.addr, align 8
  %0 = load ptr, ptr %api.addr, align 8
  %call = call noundef ptr @_ZNK4llvh5APInt10getRawDataEv(ptr noundef nonnull align 8 dereferenceable(12) %0)
  %arrayidx = getelementptr inbounds i64, ptr %call, i64 0
  %1 = load i64, ptr %arrayidx, align 8
  store i64 %1, ptr %i1, align 8
  %2 = load ptr, ptr %api.addr, align 8
  %call2 = call noundef ptr @_ZNK4llvh5APInt10getRawDataEv(ptr noundef nonnull align 8 dereferenceable(12) %2)
  %arrayidx3 = getelementptr inbounds i64, ptr %call2, i64 1
  %3 = load i64, ptr %arrayidx3, align 8
  store i64 %3, ptr %i2, align 8
  %4 = load i64, ptr %i2, align 8
  %and = and i64 %4, 32767
  store i64 %and, ptr %myexponent, align 8
  %5 = load i64, ptr %i1, align 8
  store i64 %5, ptr %mysignificand, align 8
  %6 = load i64, ptr %mysignificand, align 8
  %shr = lshr i64 %6, 63
  %conv = trunc i64 %shr to i8
  store i8 %conv, ptr %myintegerbit, align 1
  call void @_ZN4llvh6detail9IEEEFloat10initializeEPKNS_12fltSemanticsE(ptr noundef nonnull align 8 dereferenceable(24) %this1, ptr noundef @_ZN4llvhL20semX87DoubleExtendedE)
  %7 = load i64, ptr %i2, align 8
  %shr4 = lshr i64 %7, 15
  %conv5 = trunc i64 %shr4 to i32
  %sign = getelementptr inbounds %"class.llvh::detail::IEEEFloat", ptr %this1, i32 0, i32 3
  %8 = trunc i32 %conv5 to i8
  %bf.load = load i8, ptr %sign, align 2
  %bf.value = and i8 %8, 1
  %bf.shl = shl i8 %bf.value, 3
  %bf.clear = and i8 %bf.load, -9
  %bf.set = or i8 %bf.clear, %bf.shl
  store i8 %bf.set, ptr %sign, align 2
  %9 = load i64, ptr %myexponent, align 8
  %cmp = icmp eq i64 %9, 0
  br i1 %cmp, label %land.lhs.true, label %if.else

land.lhs.true:                                    ; preds = %entry
  %10 = load i64, ptr %mysignificand, align 8
  %cmp6 = icmp eq i64 %10, 0
  br i1 %cmp6, label %if.then, label %if.else

if.then:                                          ; preds = %land.lhs.true
  %category = getelementptr inbounds %"class.llvh::detail::IEEEFloat", ptr %this1, i32 0, i32 3
  %bf.load7 = load i8, ptr %category, align 2
  %bf.clear8 = and i8 %bf.load7, -8
  %bf.set9 = or i8 %bf.clear8, 3
  store i8 %bf.set9, ptr %category, align 2
  br label %if.end52

if.else:                                          ; preds = %land.lhs.true, %entry
  %11 = load i64, ptr %myexponent, align 8
  %cmp10 = icmp eq i64 %11, 32767
  br i1 %cmp10, label %land.lhs.true11, label %if.else18

land.lhs.true11:                                  ; preds = %if.else
  %12 = load i64, ptr %mysignificand, align 8
  %cmp12 = icmp eq i64 %12, -9223372036854775808
  br i1 %cmp12, label %if.then13, label %if.else18

if.then13:                                        ; preds = %land.lhs.true11
  %category14 = getelementptr inbounds %"class.llvh::detail::IEEEFloat", ptr %this1, i32 0, i32 3
  %bf.load15 = load i8, ptr %category14, align 2
  %bf.clear16 = and i8 %bf.load15, -8
  %bf.set17 = or i8 %bf.clear16, 0
  store i8 %bf.set17, ptr %category14, align 2
  br label %if.end51

if.else18:                                        ; preds = %land.lhs.true11, %if.else
  %13 = load i64, ptr %myexponent, align 8
  %cmp19 = icmp eq i64 %13, 32767
  br i1 %cmp19, label %land.lhs.true20, label %lor.lhs.false

land.lhs.true20:                                  ; preds = %if.else18
  %14 = load i64, ptr %mysignificand, align 8
  %cmp21 = icmp ne i64 %14, -9223372036854775808
  br i1 %cmp21, label %if.then28, label %lor.lhs.false

lor.lhs.false:                                    ; preds = %land.lhs.true20, %if.else18
  %15 = load i64, ptr %myexponent, align 8
  %cmp22 = icmp ne i64 %15, 32767
  br i1 %cmp22, label %land.lhs.true23, label %if.else37

land.lhs.true23:                                  ; preds = %lor.lhs.false
  %16 = load i64, ptr %myexponent, align 8
  %cmp24 = icmp ne i64 %16, 0
  br i1 %cmp24, label %land.lhs.true25, label %if.else37

land.lhs.true25:                                  ; preds = %land.lhs.true23
  %17 = load i8, ptr %myintegerbit, align 1
  %conv26 = zext i8 %17 to i32
  %cmp27 = icmp eq i32 %conv26, 0
  br i1 %cmp27, label %if.then28, label %if.else37

if.then28:                                        ; preds = %land.lhs.true25, %land.lhs.true20
  %category29 = getelementptr inbounds %"class.llvh::detail::IEEEFloat", ptr %this1, i32 0, i32 3
  %bf.load30 = load i8, ptr %category29, align 2
  %bf.clear31 = and i8 %bf.load30, -8
  %bf.set32 = or i8 %bf.clear31, 1
  store i8 %bf.set32, ptr %category29, align 2
  %18 = load i64, ptr %mysignificand, align 8
  %call33 = call noundef ptr @_ZN4llvh6detail9IEEEFloat16significandPartsEv(ptr noundef nonnull align 8 dereferenceable(24) %this1)
  %arrayidx34 = getelementptr inbounds i64, ptr %call33, i64 0
  store i64 %18, ptr %arrayidx34, align 8
  %call35 = call noundef ptr @_ZN4llvh6detail9IEEEFloat16significandPartsEv(ptr noundef nonnull align 8 dereferenceable(24) %this1)
  %arrayidx36 = getelementptr inbounds i64, ptr %call35, i64 1
  store i64 0, ptr %arrayidx36, align 8
  br label %if.end50

if.else37:                                        ; preds = %land.lhs.true25, %land.lhs.true23, %lor.lhs.false
  %category38 = getelementptr inbounds %"class.llvh::detail::IEEEFloat", ptr %this1, i32 0, i32 3
  %bf.load39 = load i8, ptr %category38, align 2
  %bf.clear40 = and i8 %bf.load39, -8
  %bf.set41 = or i8 %bf.clear40, 2
  store i8 %bf.set41, ptr %category38, align 2
  %19 = load i64, ptr %myexponent, align 8
  %sub = sub i64 %19, 16383
  %conv42 = trunc i64 %sub to i16
  %exponent = getelementptr inbounds %"class.llvh::detail::IEEEFloat", ptr %this1, i32 0, i32 2
  store i16 %conv42, ptr %exponent, align 8
  %20 = load i64, ptr %mysignificand, align 8
  %call43 = call noundef ptr @_ZN4llvh6detail9IEEEFloat16significandPartsEv(ptr noundef nonnull align 8 dereferenceable(24) %this1)
  %arrayidx44 = getelementptr inbounds i64, ptr %call43, i64 0
  store i64 %20, ptr %arrayidx44, align 8
  %call45 = call noundef ptr @_ZN4llvh6detail9IEEEFloat16significandPartsEv(ptr noundef nonnull align 8 dereferenceable(24) %this1)
  %arrayidx46 = getelementptr inbounds i64, ptr %call45, i64 1
  store i64 0, ptr %arrayidx46, align 8
  %21 = load i64, ptr %myexponent, align 8
  %cmp47 = icmp eq i64 %21, 0
  br i1 %cmp47, label %if.then48, label %if.end

if.then48:                                        ; preds = %if.else37
  %exponent49 = getelementptr inbounds %"class.llvh::detail::IEEEFloat", ptr %this1, i32 0, i32 2
  store i16 -16382, ptr %exponent49, align 8
  br label %if.end

if.end:                                           ; preds = %if.then48, %if.else37
  br label %if.end50

if.end50:                                         ; preds = %if.end, %if.then28
  br label %if.end51

if.end51:                                         ; preds = %if.end50, %if.then13
  br label %if.end52

if.end52:                                         ; preds = %if.end51, %if.then
  ret void
}