; Function Attrs: mustprogress nounwind uwtable
define hidden void @_ZN4llvh6detail9IEEEFloat26initFromF80LongDoubleAPIntERKNS_5APIntE(ptr noundef nonnull align 8 captures(none) dereferenceable(24) initializes((0, 16)) %this, ptr noundef nonnull readonly align 8 captures(none) dereferenceable(12) %api) local_unnamed_addr #2 align 2 {
entry:
  %BitWidth.i.i = getelementptr inbounds nuw i8, ptr %api, i64 8
  %0 = load i32, ptr %BitWidth.i.i, align 8
  %cmp.i.i = icmp ult i32 %0, 65
  %1 = load ptr, ptr %api, align 8
  %retval.0.i = select i1 %cmp.i.i, ptr %api, ptr %1
  %2 = load i64, ptr %retval.0.i, align 8
  %.fr = freeze i64 %2
  %arrayidx3 = getelementptr inbounds nuw i8, ptr %retval.0.i, i64 8
  %3 = load i64, ptr %arrayidx3, align 8
  %and = and i64 %3, 32767
  store ptr @_ZN4llvhL20semX87DoubleExtendedE, ptr %this, align 8
  %call2.i = tail call noalias noundef nonnull dereferenceable(16) ptr @_Znam(i64 noundef 16) #24
  %significand.i = getelementptr inbounds nuw i8, ptr %this, i64 8
  store ptr %call2.i, ptr %significand.i, align 8
  %sign = getelementptr inbounds nuw i8, ptr %this, i64 18
  %bf.load = load i8, ptr %sign, align 2
  %sh.diff = lshr i64 %3, 12
  %tr.sh.diff = trunc i64 %sh.diff to i8
  %bf.shl = and i8 %tr.sh.diff, 8
  %bf.clear = and i8 %bf.load, -9
  %bf.set = or disjoint i8 %bf.clear, %bf.shl
  %cmp = icmp eq i64 %and, 0
  %4 = or i64 %and, %.fr
  %or.cond = icmp eq i64 %4, 0
  br i1 %or.cond, label %if.then, label %if.else

if.then:                                          ; preds = %entry
  %bf.clear8 = and i8 %bf.set, -8
  %bf.set9 = or disjoint i8 %bf.clear8, 3
  store i8 %bf.set9, ptr %sign, align 2
  br label %if.end52

if.else:                                          ; preds = %entry
  %cmp10 = icmp eq i64 %and, 32767
  %cmp12 = icmp eq i64 %.fr, -9223372036854775808
  %or.cond1 = and i1 %cmp10, %cmp12
  br i1 %or.cond1, label %if.then13, label %if.else18

if.then13:                                        ; preds = %if.else
  %bf.clear16 = and i8 %bf.set, -8
  store i8 %bf.clear16, ptr %sign, align 2
  br label %if.end52

if.else18:                                        ; preds = %if.else
  %cmp21 = icmp ne i64 %.fr, -9223372036854775808
  %or.cond2 = and i1 %cmp10, %cmp21
  br i1 %or.cond2, label %if.then28, label %lor.lhs.false

lor.lhs.false:                                    ; preds = %if.else18
  %cmp27 = icmp sgt i64 %.fr, -1
  br i1 %cmp27, label %switch.early.test, label %if.else37

switch.early.test:                                ; preds = %lor.lhs.false
  switch i64 %and, label %if.then28 [
    i64 32767, label %if.else37
    i64 0, label %if.else37
  ]

if.then28:                                        ; preds = %switch.early.test, %if.else18
  %bf.clear31 = and i8 %bf.set, -8
  %bf.set32 = or disjoint i8 %bf.clear31, 1
  store i8 %bf.set32, ptr %sign, align 2
  store i64 %.fr, ptr %call2.i, align 8
  %arrayidx36 = getelementptr inbounds nuw i8, ptr %call2.i, i64 8
  store i64 0, ptr %arrayidx36, align 8
  br label %if.end52

if.else37:                                        ; preds = %switch.early.test, %switch.early.test, %lor.lhs.false
  %bf.clear40 = and i8 %bf.set, -8
  %bf.set41 = or disjoint i8 %bf.clear40, 2
  store i8 %bf.set41, ptr %sign, align 2
  %5 = trunc nuw nsw i64 %and to i16
  %conv42 = add nsw i16 %5, -16383
  %exponent = getelementptr inbounds nuw i8, ptr %this, i64 16
  store i16 %conv42, ptr %exponent, align 8
  store i64 %.fr, ptr %call2.i, align 8
  %arrayidx46 = getelementptr inbounds nuw i8, ptr %call2.i, i64 8
  store i64 0, ptr %arrayidx46, align 8
  br i1 %cmp, label %if.then48, label %if.end52

if.then48:                                        ; preds = %if.else37
  store i16 -16382, ptr %exponent, align 8
  br label %if.end52

if.end52:                                         ; preds = %if.then13, %if.else37, %if.then48, %if.then28, %if.then
  ret void
}